
Solder_station_v_1.elf:     file format elf32-avr

Sections:
Idx Name          Size      VMA       LMA       File off  Algn
  0 .text         00000c32  00000000  00000000  00000094  2**1
                  CONTENTS, ALLOC, LOAD, READONLY, CODE
  1 .data         0000015c  00800060  00000c32  00000cc6  2**0
                  CONTENTS, ALLOC, LOAD, DATA
  2 .bss          00000019  008001bc  008001bc  00000e22  2**0
                  ALLOC

Disassembly of section .text:

00000000 <__vectors>:
   0:	12 c0       	rjmp	.+36     	; 0x26 <__ctors_end>
   2:	2c c0       	rjmp	.+88     	; 0x5c <__bad_interrupt>
   4:	2b c0       	rjmp	.+86     	; 0x5c <__bad_interrupt>
   6:	2a c0       	rjmp	.+84     	; 0x5c <__bad_interrupt>
   8:	29 c0       	rjmp	.+82     	; 0x5c <__bad_interrupt>
   a:	28 c0       	rjmp	.+80     	; 0x5c <__bad_interrupt>
   c:	4a c5       	rjmp	.+2708   	; 0xaa2 <__vector_6>
   e:	26 c0       	rjmp	.+76     	; 0x5c <__bad_interrupt>
  10:	25 c0       	rjmp	.+74     	; 0x5c <__bad_interrupt>
  12:	24 c0       	rjmp	.+72     	; 0x5c <__bad_interrupt>
  14:	23 c0       	rjmp	.+70     	; 0x5c <__bad_interrupt>
  16:	22 c0       	rjmp	.+68     	; 0x5c <__bad_interrupt>
  18:	21 c0       	rjmp	.+66     	; 0x5c <__bad_interrupt>
  1a:	20 c0       	rjmp	.+64     	; 0x5c <__bad_interrupt>
  1c:	1f c0       	rjmp	.+62     	; 0x5c <__bad_interrupt>
  1e:	1e c0       	rjmp	.+60     	; 0x5c <__bad_interrupt>
  20:	1d c0       	rjmp	.+58     	; 0x5c <__bad_interrupt>
  22:	1c c0       	rjmp	.+56     	; 0x5c <__bad_interrupt>
  24:	1b c0       	rjmp	.+54     	; 0x5c <__bad_interrupt>

00000026 <__ctors_end>:
  26:	11 24       	eor	r1, r1
  28:	1f be       	out	0x3f, r1	; 63
  2a:	cf e5       	ldi	r28, 0x5F	; 95
  2c:	d4 e0       	ldi	r29, 0x04	; 4
  2e:	de bf       	out	0x3e, r29	; 62
  30:	cd bf       	out	0x3d, r28	; 61

00000032 <__do_copy_data>:
  32:	11 e0       	ldi	r17, 0x01	; 1
  34:	a0 e6       	ldi	r26, 0x60	; 96
  36:	b0 e0       	ldi	r27, 0x00	; 0
  38:	e2 e3       	ldi	r30, 0x32	; 50
  3a:	fc e0       	ldi	r31, 0x0C	; 12
  3c:	02 c0       	rjmp	.+4      	; 0x42 <.do_copy_data_start>

0000003e <.do_copy_data_loop>:
  3e:	05 90       	lpm	r0, Z+
  40:	0d 92       	st	X+, r0

00000042 <.do_copy_data_start>:
  42:	ac 3b       	cpi	r26, 0xBC	; 188
  44:	b1 07       	cpc	r27, r17
  46:	d9 f7       	brne	.-10     	; 0x3e <.do_copy_data_loop>

00000048 <__do_clear_bss>:
  48:	11 e0       	ldi	r17, 0x01	; 1
  4a:	ac eb       	ldi	r26, 0xBC	; 188
  4c:	b1 e0       	ldi	r27, 0x01	; 1
  4e:	01 c0       	rjmp	.+2      	; 0x52 <.do_clear_bss_start>

00000050 <.do_clear_bss_loop>:
  50:	1d 92       	st	X+, r1

00000052 <.do_clear_bss_start>:
  52:	a5 3d       	cpi	r26, 0xD5	; 213
  54:	b1 07       	cpc	r27, r17
  56:	e1 f7       	brne	.-8      	; 0x50 <.do_clear_bss_loop>
  58:	45 d5       	rcall	.+2698   	; 0xae4 <main>
  5a:	83 c0       	rjmp	.+262    	; 0x162 <exit>

0000005c <__bad_interrupt>:
  5c:	d1 cf       	rjmp	.-94     	; 0x0 <__vectors>

0000005e <pid>:
  5e:	cf 93       	push	r28
  60:	df 93       	push	r29
  62:	ea 01       	movw	r28, r20
  64:	ec 81       	ldd	r30, Y+4	; 0x04
  66:	f0 e0       	ldi	r31, 0x00	; 0
  68:	df 01       	movw	r26, r30
  6a:	a1 70       	andi	r26, 0x01	; 1
  6c:	b0 70       	andi	r27, 0x00	; 0
  6e:	aa 0f       	add	r26, r26
  70:	bb 1f       	adc	r27, r27
  72:	a4 0f       	add	r26, r20
  74:	b5 1f       	adc	r27, r21
  76:	ac 01       	movw	r20, r24
  78:	46 1b       	sub	r20, r22
  7a:	57 0b       	sbc	r21, r23
  7c:	16 96       	adiw	r26, 0x06	; 6
  7e:	5c 93       	st	X, r21
  80:	4e 93       	st	-X, r20
  82:	15 97       	sbiw	r26, 0x05	; 5
  84:	31 97       	sbiw	r30, 0x01	; 1
  86:	e1 70       	andi	r30, 0x01	; 1
  88:	f0 70       	andi	r31, 0x00	; 0
  8a:	ee 0f       	add	r30, r30
  8c:	ff 1f       	adc	r31, r31
  8e:	ec 0f       	add	r30, r28
  90:	fd 1f       	adc	r31, r29
  92:	85 81       	ldd	r24, Z+5	; 0x05
  94:	96 81       	ldd	r25, Z+6	; 0x06
  96:	ba 01       	movw	r22, r20
  98:	68 1b       	sub	r22, r24
  9a:	79 0b       	sbc	r23, r25
  9c:	7c 87       	std	Y+12, r23	; 0x0c
  9e:	6b 87       	std	Y+11, r22	; 0x0b
  a0:	8b 81       	ldd	r24, Y+3	; 0x03
  a2:	28 2f       	mov	r18, r24
  a4:	30 e0       	ldi	r19, 0x00	; 0
  a6:	24 17       	cp	r18, r20
  a8:	35 07       	cpc	r19, r21
  aa:	3c f0       	brlt	.+14     	; 0xba <pid+0x5c>
  ac:	88 27       	eor	r24, r24
  ae:	99 27       	eor	r25, r25
  b0:	82 1b       	sub	r24, r18
  b2:	93 0b       	sbc	r25, r19
  b4:	48 17       	cp	r20, r24
  b6:	59 07       	cpc	r21, r25
  b8:	b4 f4       	brge	.+44     	; 0xe6 <pid+0x88>
  ba:	8a 81       	ldd	r24, Y+2	; 0x02
  bc:	90 e0       	ldi	r25, 0x00	; 0
  be:	68 9f       	mul	r22, r24
  c0:	f0 01       	movw	r30, r0
  c2:	69 9f       	mul	r22, r25
  c4:	f0 0d       	add	r31, r0
  c6:	78 9f       	mul	r23, r24
  c8:	f0 0d       	add	r31, r0
  ca:	11 24       	eor	r1, r1
  cc:	88 81       	ld	r24, Y
  ce:	90 e0       	ldi	r25, 0x00	; 0
  d0:	9c 01       	movw	r18, r24
  d2:	42 9f       	mul	r20, r18
  d4:	c0 01       	movw	r24, r0
  d6:	43 9f       	mul	r20, r19
  d8:	90 0d       	add	r25, r0
  da:	52 9f       	mul	r21, r18
  dc:	90 0d       	add	r25, r0
  de:	11 24       	eor	r1, r1
  e0:	e8 0f       	add	r30, r24
  e2:	f9 1f       	adc	r31, r25
  e4:	2a c0       	rjmp	.+84     	; 0x13a <pid+0xdc>
  e6:	29 85       	ldd	r18, Y+9	; 0x09
  e8:	3a 85       	ldd	r19, Y+10	; 0x0a
  ea:	24 0f       	add	r18, r20
  ec:	35 1f       	adc	r19, r21
  ee:	3a 87       	std	Y+10, r19	; 0x0a
  f0:	29 87       	std	Y+9, r18	; 0x09
  f2:	88 81       	ld	r24, Y
  f4:	90 e0       	ldi	r25, 0x00	; 0
  f6:	84 9f       	mul	r24, r20
  f8:	f0 01       	movw	r30, r0
  fa:	85 9f       	mul	r24, r21
  fc:	f0 0d       	add	r31, r0
  fe:	94 9f       	mul	r25, r20
 100:	f0 0d       	add	r31, r0
 102:	11 24       	eor	r1, r1
 104:	8a 81       	ldd	r24, Y+2	; 0x02
 106:	90 e0       	ldi	r25, 0x00	; 0
 108:	ac 01       	movw	r20, r24
 10a:	46 9f       	mul	r20, r22
 10c:	c0 01       	movw	r24, r0
 10e:	47 9f       	mul	r20, r23
 110:	90 0d       	add	r25, r0
 112:	56 9f       	mul	r21, r22
 114:	90 0d       	add	r25, r0
 116:	11 24       	eor	r1, r1
 118:	e8 0f       	add	r30, r24
 11a:	f9 1f       	adc	r31, r25
 11c:	89 81       	ldd	r24, Y+1	; 0x01
 11e:	90 e0       	ldi	r25, 0x00	; 0
 120:	ac 01       	movw	r20, r24
 122:	24 9f       	mul	r18, r20
 124:	c0 01       	movw	r24, r0
 126:	25 9f       	mul	r18, r21
 128:	90 0d       	add	r25, r0
 12a:	34 9f       	mul	r19, r20
 12c:	90 0d       	add	r25, r0
 12e:	11 24       	eor	r1, r1
 130:	64 e6       	ldi	r22, 0x64	; 100
 132:	70 e0       	ldi	r23, 0x00	; 0
 134:	34 d5       	rcall	.+2664   	; 0xb9e <__divmodhi4>
 136:	e6 0f       	add	r30, r22
 138:	f7 1f       	adc	r31, r23
 13a:	8c 81       	ldd	r24, Y+4	; 0x04
 13c:	8f 5f       	subi	r24, 0xFF	; 255
 13e:	8c 83       	std	Y+4, r24	; 0x04
 140:	ef 3f       	cpi	r30, 0xFF	; 255
 142:	f1 05       	cpc	r31, r1
 144:	21 f0       	breq	.+8      	; 0x14e <pid+0xf0>
 146:	1c f0       	brlt	.+6      	; 0x14e <pid+0xf0>
 148:	2f ef       	ldi	r18, 0xFF	; 255
 14a:	30 e0       	ldi	r19, 0x00	; 0
 14c:	06 c0       	rjmp	.+12     	; 0x15a <pid+0xfc>
 14e:	f7 ff       	sbrs	r31, 7
 150:	03 c0       	rjmp	.+6      	; 0x158 <pid+0xfa>
 152:	20 e0       	ldi	r18, 0x00	; 0
 154:	30 e0       	ldi	r19, 0x00	; 0
 156:	01 c0       	rjmp	.+2      	; 0x15a <pid+0xfc>
 158:	9f 01       	movw	r18, r30
 15a:	c9 01       	movw	r24, r18
 15c:	df 91       	pop	r29
 15e:	cf 91       	pop	r28
 160:	08 95       	ret

00000162 <exit>:
 162:	10 92 cc 01 	sts	0x01CC, r1
 166:	08 95       	ret

00000168 <exit_info>:
 168:	8c eb       	ldi	r24, 0xBC	; 188
 16a:	91 e0       	ldi	r25, 0x01	; 1
 16c:	60 e0       	ldi	r22, 0x00	; 0
 16e:	70 e0       	ldi	r23, 0x00	; 0
 170:	c3 d3       	rcall	.+1926   	; 0x8f8 <read_kbc>
 172:	80 91 bc 01 	lds	r24, 0x01BC
 176:	88 23       	and	r24, r24
 178:	19 f0       	breq	.+6      	; 0x180 <exit_info+0x18>
 17a:	82 e0       	ldi	r24, 0x02	; 2
 17c:	80 93 cc 01 	sts	0x01CC, r24
 180:	08 95       	ret

00000182 <clear>:
 182:	0f 93       	push	r16
 184:	1f 93       	push	r17
 186:	81 e0       	ldi	r24, 0x01	; 1
 188:	90 e0       	ldi	r25, 0x00	; 0
 18a:	60 e0       	ldi	r22, 0x00	; 0
 18c:	70 e0       	ldi	r23, 0x00	; 0
 18e:	f4 d1       	rcall	.+1000   	; 0x578 <lcd_locate>
 190:	80 e6       	ldi	r24, 0x60	; 96
 192:	90 e0       	ldi	r25, 0x00	; 0
 194:	97 d1       	rcall	.+814    	; 0x4c4 <lcd_str>
 196:	81 e0       	ldi	r24, 0x01	; 1
 198:	90 e0       	ldi	r25, 0x00	; 0
 19a:	63 e0       	ldi	r22, 0x03	; 3
 19c:	70 e0       	ldi	r23, 0x00	; 0
 19e:	ec d1       	rcall	.+984    	; 0x578 <lcd_locate>
 1a0:	02 e6       	ldi	r16, 0x62	; 98
 1a2:	10 e0       	ldi	r17, 0x00	; 0
 1a4:	c8 01       	movw	r24, r16
 1a6:	8e d1       	rcall	.+796    	; 0x4c4 <lcd_str>
 1a8:	81 e0       	ldi	r24, 0x01	; 1
 1aa:	90 e0       	ldi	r25, 0x00	; 0
 1ac:	67 e0       	ldi	r22, 0x07	; 7
 1ae:	70 e0       	ldi	r23, 0x00	; 0
 1b0:	e3 d1       	rcall	.+966    	; 0x578 <lcd_locate>
 1b2:	c8 01       	movw	r24, r16
 1b4:	87 d1       	rcall	.+782    	; 0x4c4 <lcd_str>
 1b6:	81 e0       	ldi	r24, 0x01	; 1
 1b8:	90 e0       	ldi	r25, 0x00	; 0
 1ba:	6b e0       	ldi	r22, 0x0B	; 11
 1bc:	70 e0       	ldi	r23, 0x00	; 0
 1be:	dc d1       	rcall	.+952    	; 0x578 <lcd_locate>
 1c0:	c8 01       	movw	r24, r16
 1c2:	80 d1       	rcall	.+768    	; 0x4c4 <lcd_str>
 1c4:	1f 91       	pop	r17
 1c6:	0f 91       	pop	r16
 1c8:	08 95       	ret

000001ca <settings_func>:
 1ca:	0f 93       	push	r16
 1cc:	1f 93       	push	r17
 1ce:	df 93       	push	r29
 1d0:	cf 93       	push	r28
 1d2:	cd b7       	in	r28, 0x3d	; 61
 1d4:	de b7       	in	r29, 0x3e	; 62
 1d6:	60 97       	sbiw	r28, 0x10	; 16
 1d8:	0f b6       	in	r0, 0x3f	; 63
 1da:	f8 94       	cli
 1dc:	de bf       	out	0x3e, r29	; 62
 1de:	0f be       	out	0x3f, r0	; 63
 1e0:	cd bf       	out	0x3d, r28	; 61
 1e2:	de 01       	movw	r26, r28
 1e4:	11 96       	adiw	r26, 0x01	; 1
 1e6:	e4 e2       	ldi	r30, 0x24	; 36
 1e8:	f1 e0       	ldi	r31, 0x01	; 1
 1ea:	80 e1       	ldi	r24, 0x10	; 16
 1ec:	01 90       	ld	r0, Z+
 1ee:	0d 92       	st	X+, r0
 1f0:	81 50       	subi	r24, 0x01	; 1
 1f2:	e1 f7       	brne	.-8      	; 0x1ec <settings_func+0x22>
 1f4:	c6 df       	rcall	.-116    	; 0x182 <clear>
 1f6:	8d eb       	ldi	r24, 0xBD	; 189
 1f8:	91 e0       	ldi	r25, 0x01	; 1
 1fa:	60 e0       	ldi	r22, 0x00	; 0
 1fc:	70 e0       	ldi	r23, 0x00	; 0
 1fe:	40 e0       	ldi	r20, 0x00	; 0
 200:	50 e0       	ldi	r21, 0x00	; 0
 202:	7a d3       	rcall	.+1780   	; 0x8f8 <read_kbc>
 204:	80 91 bd 01 	lds	r24, 0x01BD
 208:	84 30       	cpi	r24, 0x04	; 4
 20a:	28 f0       	brcs	.+10     	; 0x216 <settings_func+0x4c>
 20c:	10 92 bd 01 	sts	0x01BD, r1
 210:	81 e0       	ldi	r24, 0x01	; 1
 212:	80 93 cc 01 	sts	0x01CC, r24
 216:	80 91 cd 01 	lds	r24, 0x01CD
 21a:	8a 30       	cpi	r24, 0x0A	; 10
 21c:	40 f4       	brcc	.+16     	; 0x22e <settings_func+0x64>
 21e:	81 e0       	ldi	r24, 0x01	; 1
 220:	90 e0       	ldi	r25, 0x00	; 0
 222:	62 e0       	ldi	r22, 0x02	; 2
 224:	70 e0       	ldi	r23, 0x00	; 0
 226:	a8 d1       	rcall	.+848    	; 0x578 <lcd_locate>
 228:	80 e2       	ldi	r24, 0x20	; 32
 22a:	90 e0       	ldi	r25, 0x00	; 0
 22c:	43 d1       	rcall	.+646    	; 0x4b4 <lcd_char>
 22e:	80 91 bd 01 	lds	r24, 0x01BD
 232:	fe 01       	movw	r30, r28
 234:	e8 0f       	add	r30, r24
 236:	f1 1d       	adc	r31, r1
 238:	21 81       	ldd	r18, Z+1	; 0x01
 23a:	80 91 cd 01 	lds	r24, 0x01CD
 23e:	90 e0       	ldi	r25, 0x00	; 0
 240:	61 e0       	ldi	r22, 0x01	; 1
 242:	70 e0       	ldi	r23, 0x00	; 0
 244:	41 e0       	ldi	r20, 0x01	; 1
 246:	50 e0       	ldi	r21, 0x00	; 0
 248:	30 e0       	ldi	r19, 0x00	; 0
 24a:	0f e0       	ldi	r16, 0x0F	; 15
 24c:	10 e0       	ldi	r17, 0x00	; 0
 24e:	cf d2       	rcall	.+1438   	; 0x7ee <lcd_blink_int>
 250:	80 91 ce 01 	lds	r24, 0x01CE
 254:	8a 30       	cpi	r24, 0x0A	; 10
 256:	40 f4       	brcc	.+16     	; 0x268 <settings_func+0x9e>
 258:	81 e0       	ldi	r24, 0x01	; 1
 25a:	90 e0       	ldi	r25, 0x00	; 0
 25c:	66 e0       	ldi	r22, 0x06	; 6
 25e:	70 e0       	ldi	r23, 0x00	; 0
 260:	8b d1       	rcall	.+790    	; 0x578 <lcd_locate>
 262:	80 e2       	ldi	r24, 0x20	; 32
 264:	90 e0       	ldi	r25, 0x00	; 0
 266:	26 d1       	rcall	.+588    	; 0x4b4 <lcd_char>
 268:	80 91 bd 01 	lds	r24, 0x01BD
 26c:	fe 01       	movw	r30, r28
 26e:	e8 0f       	add	r30, r24
 270:	f1 1d       	adc	r31, r1
 272:	25 81       	ldd	r18, Z+5	; 0x05
 274:	80 91 ce 01 	lds	r24, 0x01CE
 278:	90 e0       	ldi	r25, 0x00	; 0
 27a:	61 e0       	ldi	r22, 0x01	; 1
 27c:	70 e0       	ldi	r23, 0x00	; 0
 27e:	45 e0       	ldi	r20, 0x05	; 5
 280:	50 e0       	ldi	r21, 0x00	; 0
 282:	30 e0       	ldi	r19, 0x00	; 0
 284:	0f e0       	ldi	r16, 0x0F	; 15
 286:	10 e0       	ldi	r17, 0x00	; 0
 288:	b2 d2       	rcall	.+1380   	; 0x7ee <lcd_blink_int>
 28a:	80 91 bd 01 	lds	r24, 0x01BD
 28e:	fe 01       	movw	r30, r28
 290:	e8 0f       	add	r30, r24
 292:	f1 1d       	adc	r31, r1
 294:	21 85       	ldd	r18, Z+9	; 0x09
 296:	80 91 cf 01 	lds	r24, 0x01CF
 29a:	90 e0       	ldi	r25, 0x00	; 0
 29c:	61 e0       	ldi	r22, 0x01	; 1
 29e:	70 e0       	ldi	r23, 0x00	; 0
 2a0:	49 e0       	ldi	r20, 0x09	; 9
 2a2:	50 e0       	ldi	r21, 0x00	; 0
 2a4:	30 e0       	ldi	r19, 0x00	; 0
 2a6:	a3 d2       	rcall	.+1350   	; 0x7ee <lcd_blink_int>
 2a8:	80 91 bd 01 	lds	r24, 0x01BD
 2ac:	fe 01       	movw	r30, r28
 2ae:	e8 0f       	add	r30, r24
 2b0:	f1 1d       	adc	r31, r1
 2b2:	25 85       	ldd	r18, Z+13	; 0x0d
 2b4:	80 91 d0 01 	lds	r24, 0x01D0
 2b8:	90 e0       	ldi	r25, 0x00	; 0
 2ba:	61 e0       	ldi	r22, 0x01	; 1
 2bc:	70 e0       	ldi	r23, 0x00	; 0
 2be:	4d e0       	ldi	r20, 0x0D	; 13
 2c0:	50 e0       	ldi	r21, 0x00	; 0
 2c2:	30 e0       	ldi	r19, 0x00	; 0
 2c4:	94 d2       	rcall	.+1320   	; 0x7ee <lcd_blink_int>
 2c6:	83 d3       	rcall	.+1798   	; 0x9ce <encoder>
 2c8:	80 91 bd 01 	lds	r24, 0x01BD
 2cc:	88 23       	and	r24, r24
 2ce:	31 f4       	brne	.+12     	; 0x2dc <settings_func+0x112>
 2d0:	10 91 cd 01 	lds	r17, 0x01CD
 2d4:	ba d3       	rcall	.+1908   	; 0xa4a <enc_get>
 2d6:	18 0f       	add	r17, r24
 2d8:	10 93 cd 01 	sts	0x01CD, r17
 2dc:	80 91 bd 01 	lds	r24, 0x01BD
 2e0:	81 30       	cpi	r24, 0x01	; 1
 2e2:	31 f4       	brne	.+12     	; 0x2f0 <settings_func+0x126>
 2e4:	10 91 ce 01 	lds	r17, 0x01CE
 2e8:	b0 d3       	rcall	.+1888   	; 0xa4a <enc_get>
 2ea:	18 0f       	add	r17, r24
 2ec:	10 93 ce 01 	sts	0x01CE, r17
 2f0:	80 91 bd 01 	lds	r24, 0x01BD
 2f4:	82 30       	cpi	r24, 0x02	; 2
 2f6:	31 f4       	brne	.+12     	; 0x304 <settings_func+0x13a>
 2f8:	10 91 cf 01 	lds	r17, 0x01CF
 2fc:	a6 d3       	rcall	.+1868   	; 0xa4a <enc_get>
 2fe:	18 0f       	add	r17, r24
 300:	10 93 cf 01 	sts	0x01CF, r17
 304:	80 91 bd 01 	lds	r24, 0x01BD
 308:	83 30       	cpi	r24, 0x03	; 3
 30a:	31 f4       	brne	.+12     	; 0x318 <settings_func+0x14e>
 30c:	10 91 d0 01 	lds	r17, 0x01D0
 310:	9c d3       	rcall	.+1848   	; 0xa4a <enc_get>
 312:	18 0f       	add	r17, r24
 314:	10 93 d0 01 	sts	0x01D0, r17
 318:	60 96       	adiw	r28, 0x10	; 16
 31a:	0f b6       	in	r0, 0x3f	; 63
 31c:	f8 94       	cli
 31e:	de bf       	out	0x3e, r29	; 62
 320:	0f be       	out	0x3f, r0	; 63
 322:	cd bf       	out	0x3d, r28	; 61
 324:	cf 91       	pop	r28
 326:	df 91       	pop	r29
 328:	1f 91       	pop	r17
 32a:	0f 91       	pop	r16
 32c:	08 95       	ret

0000032e <menu_change>:
 32e:	ff 92       	push	r15
 330:	0f 93       	push	r16
 332:	1f 93       	push	r17
 334:	cf 93       	push	r28
 336:	df 93       	push	r29
 338:	f8 2e       	mov	r15, r24
 33a:	90 e0       	ldi	r25, 0x00	; 0
 33c:	29 e0       	ldi	r18, 0x09	; 9
 33e:	2f 15       	cp	r18, r15
 340:	80 f0       	brcs	.+32     	; 0x362 <menu_change+0x34>
 342:	01 97       	sbiw	r24, 0x01	; 1
 344:	fc 01       	movw	r30, r24
 346:	ee 0f       	add	r30, r30
 348:	ff 1f       	adc	r31, r31
 34a:	e8 0f       	add	r30, r24
 34c:	f9 1f       	adc	r31, r25
 34e:	ee 0f       	add	r30, r30
 350:	ff 1f       	adc	r31, r31
 352:	df 01       	movw	r26, r30
 354:	a3 53       	subi	r26, 0x33	; 51
 356:	bf 4f       	sbci	r27, 0xFF	; 255
 358:	0d 91       	ld	r16, X+
 35a:	1c 91       	ld	r17, X
 35c:	e1 53       	subi	r30, 0x31	; 49
 35e:	ff 4f       	sbci	r31, 0xFF	; 255
 360:	0f c0       	rjmp	.+30     	; 0x380 <menu_change+0x52>
 362:	0c 97       	sbiw	r24, 0x0c	; 12
 364:	fc 01       	movw	r30, r24
 366:	ee 0f       	add	r30, r30
 368:	ff 1f       	adc	r31, r31
 36a:	e8 0f       	add	r30, r24
 36c:	f9 1f       	adc	r31, r25
 36e:	ee 0f       	add	r30, r30
 370:	ff 1f       	adc	r31, r31
 372:	df 01       	movw	r26, r30
 374:	ae 5e       	subi	r26, 0xEE	; 238
 376:	be 4f       	sbci	r27, 0xFE	; 254
 378:	0d 91       	ld	r16, X+
 37a:	1c 91       	ld	r17, X
 37c:	ec 5e       	subi	r30, 0xEC	; 236
 37e:	fe 4f       	sbci	r31, 0xFE	; 254
 380:	c0 81       	ld	r28, Z
 382:	d1 81       	ldd	r29, Z+1	; 0x01
 384:	80 e0       	ldi	r24, 0x00	; 0
 386:	90 e0       	ldi	r25, 0x00	; 0
 388:	60 e0       	ldi	r22, 0x00	; 0
 38a:	70 e0       	ldi	r23, 0x00	; 0
 38c:	f5 d0       	rcall	.+490    	; 0x578 <lcd_locate>
 38e:	c8 01       	movw	r24, r16
 390:	99 d0       	rcall	.+306    	; 0x4c4 <lcd_str>
 392:	81 e0       	ldi	r24, 0x01	; 1
 394:	90 e0       	ldi	r25, 0x00	; 0
 396:	60 e0       	ldi	r22, 0x00	; 0
 398:	70 e0       	ldi	r23, 0x00	; 0
 39a:	ee d0       	rcall	.+476    	; 0x578 <lcd_locate>
 39c:	ce 01       	movw	r24, r28
 39e:	92 d0       	rcall	.+292    	; 0x4c4 <lcd_str>
 3a0:	8a e0       	ldi	r24, 0x0A	; 10
 3a2:	8f 15       	cp	r24, r15
 3a4:	90 f4       	brcc	.+36     	; 0x3ca <menu_change+0x9c>
 3a6:	8f 2d       	mov	r24, r15
 3a8:	90 e0       	ldi	r25, 0x00	; 0
 3aa:	0c 97       	sbiw	r24, 0x0c	; 12
 3ac:	fc 01       	movw	r30, r24
 3ae:	ee 0f       	add	r30, r30
 3b0:	ff 1f       	adc	r31, r31
 3b2:	e8 0f       	add	r30, r24
 3b4:	f9 1f       	adc	r31, r25
 3b6:	ee 0f       	add	r30, r30
 3b8:	ff 1f       	adc	r31, r31
 3ba:	ee 5e       	subi	r30, 0xEE	; 238
 3bc:	fe 4f       	sbci	r31, 0xFE	; 254
 3be:	04 80       	ldd	r0, Z+4	; 0x04
 3c0:	f5 81       	ldd	r31, Z+5	; 0x05
 3c2:	e0 2d       	mov	r30, r0
 3c4:	30 97       	sbiw	r30, 0x00	; 0
 3c6:	09 f0       	breq	.+2      	; 0x3ca <menu_change+0x9c>
 3c8:	09 95       	icall
 3ca:	df 91       	pop	r29
 3cc:	cf 91       	pop	r28
 3ce:	1f 91       	pop	r17
 3d0:	0f 91       	pop	r16
 3d2:	ff 90       	pop	r15
 3d4:	08 95       	ret

000003d6 <start_display>:
 3d6:	df 92       	push	r13
 3d8:	ef 92       	push	r14
 3da:	ff 92       	push	r15
 3dc:	0f 93       	push	r16
 3de:	1f 93       	push	r17
 3e0:	8c 01       	movw	r16, r24
 3e2:	7b 01       	movw	r14, r22
 3e4:	d4 2e       	mov	r13, r20
 3e6:	80 e0       	ldi	r24, 0x00	; 0
 3e8:	90 e0       	ldi	r25, 0x00	; 0
 3ea:	60 e0       	ldi	r22, 0x00	; 0
 3ec:	70 e0       	ldi	r23, 0x00	; 0
 3ee:	c4 d0       	rcall	.+392    	; 0x578 <lcd_locate>
 3f0:	c8 01       	movw	r24, r16
 3f2:	99 d1       	rcall	.+818    	; 0x726 <lcd_big_int>
 3f4:	c7 01       	movw	r24, r14
 3f6:	60 e0       	ldi	r22, 0x00	; 0
 3f8:	70 e0       	ldi	r23, 0x00	; 0
 3fa:	4c e0       	ldi	r20, 0x0C	; 12
 3fc:	50 e0       	ldi	r21, 0x00	; 0
 3fe:	2d 2d       	mov	r18, r13
 400:	30 e0       	ldi	r19, 0x00	; 0
 402:	0f e0       	ldi	r16, 0x0F	; 15
 404:	10 e0       	ldi	r17, 0x00	; 0
 406:	f3 d1       	rcall	.+998    	; 0x7ee <lcd_blink_int>
 408:	1f 91       	pop	r17
 40a:	0f 91       	pop	r16
 40c:	ff 90       	pop	r15
 40e:	ef 90       	pop	r14
 410:	df 90       	pop	r13
 412:	08 95       	ret

00000414 <lcd_sendHalf>:
 414:	80 ff       	sbrs	r24, 0
 416:	02 c0       	rjmp	.+4      	; 0x41c <lcd_sendHalf+0x8>
 418:	97 9a       	sbi	0x12, 7	; 18
 41a:	01 c0       	rjmp	.+2      	; 0x41e <lcd_sendHalf+0xa>
 41c:	97 98       	cbi	0x12, 7	; 18
 41e:	81 ff       	sbrs	r24, 1
 420:	02 c0       	rjmp	.+4      	; 0x426 <lcd_sendHalf+0x12>
 422:	c0 9a       	sbi	0x18, 0	; 24
 424:	01 c0       	rjmp	.+2      	; 0x428 <lcd_sendHalf+0x14>
 426:	c0 98       	cbi	0x18, 0	; 24
 428:	82 ff       	sbrs	r24, 2
 42a:	02 c0       	rjmp	.+4      	; 0x430 <lcd_sendHalf+0x1c>
 42c:	c1 9a       	sbi	0x18, 1	; 24
 42e:	01 c0       	rjmp	.+2      	; 0x432 <lcd_sendHalf+0x1e>
 430:	c1 98       	cbi	0x18, 1	; 24
 432:	83 ff       	sbrs	r24, 3
 434:	02 c0       	rjmp	.+4      	; 0x43a <lcd_sendHalf+0x26>
 436:	c2 9a       	sbi	0x18, 2	; 24
 438:	08 95       	ret
 43a:	c2 98       	cbi	0x18, 2	; 24
 43c:	08 95       	ret

0000043e <lcd_readHalf>:
 43e:	80 b3       	in	r24, 0x10	; 16
 440:	88 1f       	adc	r24, r24
 442:	88 27       	eor	r24, r24
 444:	88 1f       	adc	r24, r24
 446:	b0 99       	sbic	0x16, 0	; 22
 448:	82 60       	ori	r24, 0x02	; 2
 44a:	b1 99       	sbic	0x16, 1	; 22
 44c:	84 60       	ori	r24, 0x04	; 4
 44e:	b2 99       	sbic	0x16, 2	; 22
 450:	88 60       	ori	r24, 0x08	; 8
 452:	08 95       	ret

00000454 <_lcd_read_byte>:
 454:	1f 93       	push	r17
 456:	ba 98       	cbi	0x17, 2	; 23
 458:	b9 98       	cbi	0x17, 1	; 23
 45a:	b8 98       	cbi	0x17, 0	; 23
 45c:	8f 98       	cbi	0x11, 7	; 17
 45e:	95 9a       	sbi	0x12, 5	; 18
 460:	c7 9a       	sbi	0x18, 7	; 24
 462:	ed df       	rcall	.-38     	; 0x43e <lcd_readHalf>
 464:	18 2f       	mov	r17, r24
 466:	12 95       	swap	r17
 468:	10 7f       	andi	r17, 0xF0	; 240
 46a:	c7 98       	cbi	0x18, 7	; 24
 46c:	c7 9a       	sbi	0x18, 7	; 24
 46e:	e7 df       	rcall	.-50     	; 0x43e <lcd_readHalf>
 470:	c7 98       	cbi	0x18, 7	; 24
 472:	81 2b       	or	r24, r17
 474:	1f 91       	pop	r17
 476:	08 95       	ret

00000478 <check_BF>:
 478:	96 98       	cbi	0x12, 6	; 18
 47a:	ec df       	rcall	.-40     	; 0x454 <_lcd_read_byte>
 47c:	08 95       	ret

0000047e <_lcd_write_byte>:
 47e:	1f 93       	push	r17
 480:	18 2f       	mov	r17, r24
 482:	ba 9a       	sbi	0x17, 2	; 23
 484:	b9 9a       	sbi	0x17, 1	; 23
 486:	b8 9a       	sbi	0x17, 0	; 23
 488:	8f 9a       	sbi	0x11, 7	; 17
 48a:	95 98       	cbi	0x12, 5	; 18
 48c:	c7 9a       	sbi	0x18, 7	; 24
 48e:	82 95       	swap	r24
 490:	8f 70       	andi	r24, 0x0F	; 15
 492:	c0 df       	rcall	.-128    	; 0x414 <lcd_sendHalf>
 494:	c7 98       	cbi	0x18, 7	; 24
 496:	c7 9a       	sbi	0x18, 7	; 24
 498:	81 2f       	mov	r24, r17
 49a:	bc df       	rcall	.-136    	; 0x414 <lcd_sendHalf>
 49c:	c7 98       	cbi	0x18, 7	; 24
 49e:	ec df       	rcall	.-40     	; 0x478 <check_BF>
 4a0:	87 fd       	sbrc	r24, 7
 4a2:	fd cf       	rjmp	.-6      	; 0x49e <_lcd_write_byte+0x20>
 4a4:	1f 91       	pop	r17
 4a6:	08 95       	ret

000004a8 <lcd_write_cmd>:
 4a8:	96 98       	cbi	0x12, 6	; 18
 4aa:	e9 df       	rcall	.-46     	; 0x47e <_lcd_write_byte>
 4ac:	08 95       	ret

000004ae <lcd_write_data>:
 4ae:	96 9a       	sbi	0x12, 6	; 18
 4b0:	e6 df       	rcall	.-52     	; 0x47e <_lcd_write_byte>
 4b2:	08 95       	ret

000004b4 <lcd_char>:
 4b4:	98 2f       	mov	r25, r24
 4b6:	80 58       	subi	r24, 0x80	; 128
 4b8:	88 30       	cpi	r24, 0x08	; 8
 4ba:	08 f4       	brcc	.+2      	; 0x4be <lcd_char+0xa>
 4bc:	97 70       	andi	r25, 0x07	; 7
 4be:	89 2f       	mov	r24, r25
 4c0:	f6 df       	rcall	.-20     	; 0x4ae <lcd_write_data>
 4c2:	08 95       	ret

000004c4 <lcd_str>:
 4c4:	cf 93       	push	r28
 4c6:	df 93       	push	r29
 4c8:	ec 01       	movw	r28, r24
 4ca:	07 c0       	rjmp	.+14     	; 0x4da <lcd_str+0x16>
 4cc:	89 2f       	mov	r24, r25
 4ce:	80 58       	subi	r24, 0x80	; 128
 4d0:	88 30       	cpi	r24, 0x08	; 8
 4d2:	08 f4       	brcc	.+2      	; 0x4d6 <lcd_str+0x12>
 4d4:	97 70       	andi	r25, 0x07	; 7
 4d6:	89 2f       	mov	r24, r25
 4d8:	ea df       	rcall	.-44     	; 0x4ae <lcd_write_data>
 4da:	99 91       	ld	r25, Y+
 4dc:	99 23       	and	r25, r25
 4de:	b1 f7       	brne	.-20     	; 0x4cc <lcd_str+0x8>
 4e0:	df 91       	pop	r29
 4e2:	cf 91       	pop	r28
 4e4:	08 95       	ret

000004e6 <lcd_str_P>:
 4e6:	cf 93       	push	r28
 4e8:	df 93       	push	r29
 4ea:	ec 01       	movw	r28, r24
 4ec:	09 c0       	rjmp	.+18     	; 0x500 <lcd_str_P+0x1a>
 4ee:	89 2f       	mov	r24, r25
 4f0:	80 58       	subi	r24, 0x80	; 128
 4f2:	88 30       	cpi	r24, 0x08	; 8
 4f4:	10 f0       	brcs	.+4      	; 0x4fa <lcd_str_P+0x14>
 4f6:	89 2f       	mov	r24, r25
 4f8:	02 c0       	rjmp	.+4      	; 0x4fe <lcd_str_P+0x18>
 4fa:	89 2f       	mov	r24, r25
 4fc:	87 70       	andi	r24, 0x07	; 7
 4fe:	d7 df       	rcall	.-82     	; 0x4ae <lcd_write_data>
 500:	fe 01       	movw	r30, r28
 502:	21 96       	adiw	r28, 0x01	; 1
 504:	94 91       	lpm	r25, Z+
 506:	99 23       	and	r25, r25
 508:	91 f7       	brne	.-28     	; 0x4ee <lcd_str_P+0x8>
 50a:	df 91       	pop	r29
 50c:	cf 91       	pop	r28
 50e:	08 95       	ret

00000510 <lcd_defchar>:
 510:	1f 93       	push	r17
 512:	cf 93       	push	r28
 514:	df 93       	push	r29
 516:	eb 01       	movw	r28, r22
 518:	90 e0       	ldi	r25, 0x00	; 0
 51a:	87 70       	andi	r24, 0x07	; 7
 51c:	90 70       	andi	r25, 0x00	; 0
 51e:	08 96       	adiw	r24, 0x08	; 8
 520:	88 0f       	add	r24, r24
 522:	88 0f       	add	r24, r24
 524:	88 0f       	add	r24, r24
 526:	c0 df       	rcall	.-128    	; 0x4a8 <lcd_write_cmd>
 528:	10 e0       	ldi	r17, 0x00	; 0
 52a:	89 91       	ld	r24, Y+
 52c:	c0 df       	rcall	.-128    	; 0x4ae <lcd_write_data>
 52e:	1f 5f       	subi	r17, 0xFF	; 255
 530:	18 30       	cpi	r17, 0x08	; 8
 532:	d9 f7       	brne	.-10     	; 0x52a <lcd_defchar+0x1a>
 534:	df 91       	pop	r29
 536:	cf 91       	pop	r28
 538:	1f 91       	pop	r17
 53a:	08 95       	ret

0000053c <lcd_defchar_P>:
 53c:	0f 93       	push	r16
 53e:	1f 93       	push	r17
 540:	cf 93       	push	r28
 542:	df 93       	push	r29
 544:	8b 01       	movw	r16, r22
 546:	90 e0       	ldi	r25, 0x00	; 0
 548:	87 70       	andi	r24, 0x07	; 7
 54a:	90 70       	andi	r25, 0x00	; 0
 54c:	08 96       	adiw	r24, 0x08	; 8
 54e:	88 0f       	add	r24, r24
 550:	88 0f       	add	r24, r24
 552:	88 0f       	add	r24, r24
 554:	a9 df       	rcall	.-174    	; 0x4a8 <lcd_write_cmd>
 556:	c0 e0       	ldi	r28, 0x00	; 0
 558:	d0 e0       	ldi	r29, 0x00	; 0
 55a:	f8 01       	movw	r30, r16
 55c:	ec 0f       	add	r30, r28
 55e:	fd 1f       	adc	r31, r29
 560:	e4 91       	lpm	r30, Z+
 562:	8e 2f       	mov	r24, r30
 564:	a4 df       	rcall	.-184    	; 0x4ae <lcd_write_data>
 566:	21 96       	adiw	r28, 0x01	; 1
 568:	c8 30       	cpi	r28, 0x08	; 8
 56a:	d1 05       	cpc	r29, r1
 56c:	b1 f7       	brne	.-20     	; 0x55a <lcd_defchar_P+0x1e>
 56e:	df 91       	pop	r29
 570:	cf 91       	pop	r28
 572:	1f 91       	pop	r17
 574:	0f 91       	pop	r16
 576:	08 95       	ret

00000578 <lcd_locate>:
 578:	81 30       	cpi	r24, 0x01	; 1
 57a:	09 f4       	brne	.+2      	; 0x57e <lcd_locate+0x6>
 57c:	80 e4       	ldi	r24, 0x40	; 64
 57e:	60 58       	subi	r22, 0x80	; 128
 580:	86 0f       	add	r24, r22
 582:	92 df       	rcall	.-220    	; 0x4a8 <lcd_write_cmd>
 584:	08 95       	ret

00000586 <lcd_cls>:
 586:	81 e0       	ldi	r24, 0x01	; 1
 588:	8f df       	rcall	.-226    	; 0x4a8 <lcd_write_cmd>
 58a:	08 95       	ret

0000058c <big_int_init>:
 58c:	0f 93       	push	r16
 58e:	1f 93       	push	r17
 590:	df 93       	push	r29
 592:	cf 93       	push	r28
 594:	cd b7       	in	r28, 0x3d	; 61
 596:	de b7       	in	r29, 0x3e	; 62
 598:	c1 54       	subi	r28, 0x41	; 65
 59a:	d0 40       	sbci	r29, 0x00	; 0
 59c:	0f b6       	in	r0, 0x3f	; 63
 59e:	f8 94       	cli
 5a0:	de bf       	out	0x3e, r29	; 62
 5a2:	0f be       	out	0x3f, r0	; 63
 5a4:	cd bf       	out	0x3d, r28	; 61
 5a6:	de 01       	movw	r26, r28
 5a8:	11 96       	adiw	r26, 0x01	; 1
 5aa:	ec e7       	ldi	r30, 0x7C	; 124
 5ac:	f1 e0       	ldi	r31, 0x01	; 1
 5ae:	80 e4       	ldi	r24, 0x40	; 64
 5b0:	01 90       	ld	r0, Z+
 5b2:	0d 92       	st	X+, r0
 5b4:	81 50       	subi	r24, 0x01	; 1
 5b6:	e1 f7       	brne	.-8      	; 0x5b0 <big_int_init+0x24>
 5b8:	8e 01       	movw	r16, r28
 5ba:	0f 5f       	subi	r16, 0xFF	; 255
 5bc:	1f 4f       	sbci	r17, 0xFF	; 255
 5be:	90 e0       	ldi	r25, 0x00	; 0
 5c0:	89 2f       	mov	r24, r25
 5c2:	b8 01       	movw	r22, r16
 5c4:	22 96       	adiw	r28, 0x02	; 2
 5c6:	9f af       	std	Y+63, r25	; 0x3f
 5c8:	22 97       	sbiw	r28, 0x02	; 2
 5ca:	a2 df       	rcall	.-188    	; 0x510 <lcd_defchar>
 5cc:	22 96       	adiw	r28, 0x02	; 2
 5ce:	9f ad       	ldd	r25, Y+63	; 0x3f
 5d0:	22 97       	sbiw	r28, 0x02	; 2
 5d2:	9f 5f       	subi	r25, 0xFF	; 255
 5d4:	08 5f       	subi	r16, 0xF8	; 248
 5d6:	1f 4f       	sbci	r17, 0xFF	; 255
 5d8:	98 30       	cpi	r25, 0x08	; 8
 5da:	91 f7       	brne	.-28     	; 0x5c0 <big_int_init+0x34>
 5dc:	cf 5b       	subi	r28, 0xBF	; 191
 5de:	df 4f       	sbci	r29, 0xFF	; 255
 5e0:	0f b6       	in	r0, 0x3f	; 63
 5e2:	f8 94       	cli
 5e4:	de bf       	out	0x3e, r29	; 62
 5e6:	0f be       	out	0x3f, r0	; 63
 5e8:	cd bf       	out	0x3d, r28	; 61
 5ea:	cf 91       	pop	r28
 5ec:	df 91       	pop	r29
 5ee:	1f 91       	pop	r17
 5f0:	0f 91       	pop	r16
 5f2:	08 95       	ret

000005f4 <lcd_init>:
 5f4:	0f 93       	push	r16
 5f6:	1f 93       	push	r17
 5f8:	ba 9a       	sbi	0x17, 2	; 23
 5fa:	b9 9a       	sbi	0x17, 1	; 23
 5fc:	b8 9a       	sbi	0x17, 0	; 23
 5fe:	8f 9a       	sbi	0x11, 7	; 17
 600:	8e 9a       	sbi	0x11, 6	; 17
 602:	bf 9a       	sbi	0x17, 7	; 23
 604:	8d 9a       	sbi	0x11, 5	; 17
 606:	96 9a       	sbi	0x12, 6	; 18
 608:	c7 9a       	sbi	0x18, 7	; 24
 60a:	95 9a       	sbi	0x12, 5	; 18
 60c:	80 e3       	ldi	r24, 0x30	; 48
 60e:	95 e7       	ldi	r25, 0x75	; 117
 610:	01 97       	sbiw	r24, 0x01	; 1
 612:	f1 f7       	brne	.-4      	; 0x610 <lcd_init+0x1c>
 614:	c7 98       	cbi	0x18, 7	; 24
 616:	96 98       	cbi	0x12, 6	; 18
 618:	95 98       	cbi	0x12, 5	; 18
 61a:	c7 9a       	sbi	0x18, 7	; 24
 61c:	83 e0       	ldi	r24, 0x03	; 3
 61e:	fa de       	rcall	.-524    	; 0x414 <lcd_sendHalf>
 620:	c7 98       	cbi	0x18, 7	; 24
 622:	88 e0       	ldi	r24, 0x08	; 8
 624:	90 e2       	ldi	r25, 0x20	; 32
 626:	01 97       	sbiw	r24, 0x01	; 1
 628:	f1 f7       	brne	.-4      	; 0x626 <lcd_init+0x32>
 62a:	c7 9a       	sbi	0x18, 7	; 24
 62c:	83 e0       	ldi	r24, 0x03	; 3
 62e:	f2 de       	rcall	.-540    	; 0x414 <lcd_sendHalf>
 630:	c7 98       	cbi	0x18, 7	; 24
 632:	08 ec       	ldi	r16, 0xC8	; 200
 634:	10 e0       	ldi	r17, 0x00	; 0
 636:	c8 01       	movw	r24, r16
 638:	01 97       	sbiw	r24, 0x01	; 1
 63a:	f1 f7       	brne	.-4      	; 0x638 <lcd_init+0x44>
 63c:	c7 9a       	sbi	0x18, 7	; 24
 63e:	83 e0       	ldi	r24, 0x03	; 3
 640:	e9 de       	rcall	.-558    	; 0x414 <lcd_sendHalf>
 642:	c7 98       	cbi	0x18, 7	; 24
 644:	c8 01       	movw	r24, r16
 646:	01 97       	sbiw	r24, 0x01	; 1
 648:	f1 f7       	brne	.-4      	; 0x646 <lcd_init+0x52>
 64a:	c7 9a       	sbi	0x18, 7	; 24
 64c:	82 e0       	ldi	r24, 0x02	; 2
 64e:	e2 de       	rcall	.-572    	; 0x414 <lcd_sendHalf>
 650:	c7 98       	cbi	0x18, 7	; 24
 652:	c8 01       	movw	r24, r16
 654:	01 97       	sbiw	r24, 0x01	; 1
 656:	f1 f7       	brne	.-4      	; 0x654 <lcd_init+0x60>
 658:	88 e2       	ldi	r24, 0x28	; 40
 65a:	26 df       	rcall	.-436    	; 0x4a8 <lcd_write_cmd>
 65c:	88 e0       	ldi	r24, 0x08	; 8
 65e:	24 df       	rcall	.-440    	; 0x4a8 <lcd_write_cmd>
 660:	8c e0       	ldi	r24, 0x0C	; 12
 662:	22 df       	rcall	.-444    	; 0x4a8 <lcd_write_cmd>
 664:	86 e0       	ldi	r24, 0x06	; 6
 666:	20 df       	rcall	.-448    	; 0x4a8 <lcd_write_cmd>
 668:	91 df       	rcall	.-222    	; 0x58c <big_int_init>
 66a:	8d df       	rcall	.-230    	; 0x586 <lcd_cls>
 66c:	1f 91       	pop	r17
 66e:	0f 91       	pop	r16
 670:	08 95       	ret

00000672 <get_int_len>:
 672:	e1 e0       	ldi	r30, 0x01	; 1
 674:	f0 e0       	ldi	r31, 0x00	; 0
 676:	05 c0       	rjmp	.+10     	; 0x682 <get_int_len+0x10>
 678:	31 96       	adiw	r30, 0x01	; 1
 67a:	6a e0       	ldi	r22, 0x0A	; 10
 67c:	70 e0       	ldi	r23, 0x00	; 0
 67e:	7b d2       	rcall	.+1270   	; 0xb76 <__udivmodhi4>
 680:	cb 01       	movw	r24, r22
 682:	8a 30       	cpi	r24, 0x0A	; 10
 684:	91 05       	cpc	r25, r1
 686:	c0 f7       	brcc	.-16     	; 0x678 <get_int_len+0x6>
 688:	8e 2f       	mov	r24, r30
 68a:	08 95       	ret

0000068c <lcd_blink_str>:
 68c:	cf 92       	push	r12
 68e:	df 92       	push	r13
 690:	ef 92       	push	r14
 692:	ff 92       	push	r15
 694:	0f 93       	push	r16
 696:	1f 93       	push	r17
 698:	18 2f       	mov	r17, r24
 69a:	f9 2e       	mov	r15, r25
 69c:	e6 2e       	mov	r14, r22
 69e:	d4 2e       	mov	r13, r20
 6a0:	a8 2f       	mov	r26, r24
 6a2:	b9 2f       	mov	r27, r25
 6a4:	fd 01       	movw	r30, r26
 6a6:	01 90       	ld	r0, Z+
 6a8:	00 20       	and	r0, r0
 6aa:	e9 f7       	brne	.-6      	; 0x6a6 <lcd_blink_str+0x1a>
 6ac:	31 97       	sbiw	r30, 0x01	; 1
 6ae:	ce 2e       	mov	r12, r30
 6b0:	c8 1a       	sub	r12, r24
 6b2:	22 23       	and	r18, r18
 6b4:	59 f1       	breq	.+86     	; 0x70c <lcd_blink_str+0x80>
 6b6:	80 91 d2 01 	lds	r24, 0x01D2
 6ba:	88 23       	and	r24, r24
 6bc:	79 f4       	brne	.+30     	; 0x6dc <lcd_blink_str+0x50>
 6be:	80 91 bf 01 	lds	r24, 0x01BF
 6c2:	88 23       	and	r24, r24
 6c4:	59 f4       	brne	.+22     	; 0x6dc <lcd_blink_str+0x50>
 6c6:	86 2f       	mov	r24, r22
 6c8:	64 2f       	mov	r22, r20
 6ca:	56 df       	rcall	.-340    	; 0x578 <lcd_locate>
 6cc:	81 2f       	mov	r24, r17
 6ce:	9f 2d       	mov	r25, r15
 6d0:	f9 de       	rcall	.-526    	; 0x4c4 <lcd_str>
 6d2:	81 e0       	ldi	r24, 0x01	; 1
 6d4:	80 93 bf 01 	sts	0x01BF, r24
 6d8:	00 93 d2 01 	sts	0x01D2, r16
 6dc:	80 91 d2 01 	lds	r24, 0x01D2
 6e0:	88 23       	and	r24, r24
 6e2:	d1 f4       	brne	.+52     	; 0x718 <lcd_blink_str+0x8c>
 6e4:	80 91 bf 01 	lds	r24, 0x01BF
 6e8:	88 23       	and	r24, r24
 6ea:	b1 f0       	breq	.+44     	; 0x718 <lcd_blink_str+0x8c>
 6ec:	8e 2d       	mov	r24, r14
 6ee:	6d 2d       	mov	r22, r13
 6f0:	43 df       	rcall	.-378    	; 0x578 <lcd_locate>
 6f2:	10 e0       	ldi	r17, 0x00	; 0
 6f4:	03 c0       	rjmp	.+6      	; 0x6fc <lcd_blink_str+0x70>
 6f6:	80 e2       	ldi	r24, 0x20	; 32
 6f8:	dd de       	rcall	.-582    	; 0x4b4 <lcd_char>
 6fa:	1f 5f       	subi	r17, 0xFF	; 255
 6fc:	1c 15       	cp	r17, r12
 6fe:	d8 f3       	brcs	.-10     	; 0x6f6 <lcd_blink_str+0x6a>
 700:	10 92 bf 01 	sts	0x01BF, r1
 704:	06 95       	lsr	r16
 706:	00 93 d2 01 	sts	0x01D2, r16
 70a:	06 c0       	rjmp	.+12     	; 0x718 <lcd_blink_str+0x8c>
 70c:	86 2f       	mov	r24, r22
 70e:	64 2f       	mov	r22, r20
 710:	33 df       	rcall	.-410    	; 0x578 <lcd_locate>
 712:	81 2f       	mov	r24, r17
 714:	9f 2d       	mov	r25, r15
 716:	d6 de       	rcall	.-596    	; 0x4c4 <lcd_str>
 718:	1f 91       	pop	r17
 71a:	0f 91       	pop	r16
 71c:	ff 90       	pop	r15
 71e:	ef 90       	pop	r14
 720:	df 90       	pop	r13
 722:	cf 90       	pop	r12
 724:	08 95       	ret

00000726 <lcd_big_int>:
 726:	cf 92       	push	r12
 728:	df 92       	push	r13
 72a:	ef 92       	push	r14
 72c:	ff 92       	push	r15
 72e:	0f 93       	push	r16
 730:	1f 93       	push	r17
 732:	df 93       	push	r29
 734:	cf 93       	push	r28
 736:	cd b7       	in	r28, 0x3d	; 61
 738:	de b7       	in	r29, 0x3e	; 62
 73a:	61 97       	sbiw	r28, 0x11	; 17
 73c:	0f b6       	in	r0, 0x3f	; 63
 73e:	f8 94       	cli
 740:	de bf       	out	0x3e, r29	; 62
 742:	0f be       	out	0x3f, r0	; 63
 744:	cd bf       	out	0x3d, r28	; 61
 746:	be 01       	movw	r22, r28
 748:	6f 5f       	subi	r22, 0xFF	; 255
 74a:	7f 4f       	sbci	r23, 0xFF	; 255
 74c:	4a e0       	ldi	r20, 0x0A	; 10
 74e:	50 e0       	ldi	r21, 0x00	; 0
 750:	39 d2       	rcall	.+1138   	; 0xbc4 <itoa>
 752:	6c 01       	movw	r12, r24
 754:	1e c0       	rjmp	.+60     	; 0x792 <lcd_big_int+0x6c>
 756:	90 de       	rcall	.-736    	; 0x478 <check_BF>
 758:	18 2f       	mov	r17, r24
 75a:	1f 77       	andi	r17, 0x7F	; 127
 75c:	00 53       	subi	r16, 0x30	; 48
 75e:	e0 2e       	mov	r14, r16
 760:	ff 24       	eor	r15, r15
 762:	ee 0c       	add	r14, r14
 764:	ff 1c       	adc	r15, r15
 766:	ee 0c       	add	r14, r14
 768:	ff 1c       	adc	r15, r15
 76a:	f7 01       	movw	r30, r14
 76c:	ec 5a       	subi	r30, 0xAC	; 172
 76e:	fe 4f       	sbci	r31, 0xFE	; 254
 770:	80 81       	ld	r24, Z
 772:	91 81       	ldd	r25, Z+1	; 0x01
 774:	a7 de       	rcall	.-690    	; 0x4c4 <lcd_str>
 776:	81 2f       	mov	r24, r17
 778:	80 54       	subi	r24, 0x40	; 64
 77a:	96 de       	rcall	.-724    	; 0x4a8 <lcd_write_cmd>
 77c:	86 e5       	ldi	r24, 0x56	; 86
 77e:	91 e0       	ldi	r25, 0x01	; 1
 780:	e8 0e       	add	r14, r24
 782:	f9 1e       	adc	r15, r25
 784:	f7 01       	movw	r30, r14
 786:	80 81       	ld	r24, Z
 788:	91 81       	ldd	r25, Z+1	; 0x01
 78a:	9c de       	rcall	.-712    	; 0x4c4 <lcd_str>
 78c:	81 2f       	mov	r24, r17
 78e:	8d 57       	subi	r24, 0x7D	; 125
 790:	8b de       	rcall	.-746    	; 0x4a8 <lcd_write_cmd>
 792:	f6 01       	movw	r30, r12
 794:	01 91       	ld	r16, Z+
 796:	6f 01       	movw	r12, r30
 798:	00 23       	and	r16, r16
 79a:	e9 f6       	brne	.-70     	; 0x756 <lcd_big_int+0x30>
 79c:	61 96       	adiw	r28, 0x11	; 17
 79e:	0f b6       	in	r0, 0x3f	; 63
 7a0:	f8 94       	cli
 7a2:	de bf       	out	0x3e, r29	; 62
 7a4:	0f be       	out	0x3f, r0	; 63
 7a6:	cd bf       	out	0x3d, r28	; 61
 7a8:	cf 91       	pop	r28
 7aa:	df 91       	pop	r29
 7ac:	1f 91       	pop	r17
 7ae:	0f 91       	pop	r16
 7b0:	ff 90       	pop	r15
 7b2:	ef 90       	pop	r14
 7b4:	df 90       	pop	r13
 7b6:	cf 90       	pop	r12
 7b8:	08 95       	ret

000007ba <lcd_int>:
 7ba:	df 93       	push	r29
 7bc:	cf 93       	push	r28
 7be:	cd b7       	in	r28, 0x3d	; 61
 7c0:	de b7       	in	r29, 0x3e	; 62
 7c2:	61 97       	sbiw	r28, 0x11	; 17
 7c4:	0f b6       	in	r0, 0x3f	; 63
 7c6:	f8 94       	cli
 7c8:	de bf       	out	0x3e, r29	; 62
 7ca:	0f be       	out	0x3f, r0	; 63
 7cc:	cd bf       	out	0x3d, r28	; 61
 7ce:	be 01       	movw	r22, r28
 7d0:	6f 5f       	subi	r22, 0xFF	; 255
 7d2:	7f 4f       	sbci	r23, 0xFF	; 255
 7d4:	4a e0       	ldi	r20, 0x0A	; 10
 7d6:	50 e0       	ldi	r21, 0x00	; 0
 7d8:	f5 d1       	rcall	.+1002   	; 0xbc4 <itoa>
 7da:	74 de       	rcall	.-792    	; 0x4c4 <lcd_str>
 7dc:	61 96       	adiw	r28, 0x11	; 17
 7de:	0f b6       	in	r0, 0x3f	; 63
 7e0:	f8 94       	cli
 7e2:	de bf       	out	0x3e, r29	; 62
 7e4:	0f be       	out	0x3f, r0	; 63
 7e6:	cd bf       	out	0x3d, r28	; 61
 7e8:	cf 91       	pop	r28
 7ea:	df 91       	pop	r29
 7ec:	08 95       	ret

000007ee <lcd_blink_int>:
 7ee:	df 92       	push	r13
 7f0:	ef 92       	push	r14
 7f2:	ff 92       	push	r15
 7f4:	0f 93       	push	r16
 7f6:	1f 93       	push	r17
 7f8:	cf 93       	push	r28
 7fa:	df 93       	push	r29
 7fc:	ec 01       	movw	r28, r24
 7fe:	f6 2e       	mov	r15, r22
 800:	e4 2e       	mov	r14, r20
 802:	12 2f       	mov	r17, r18
 804:	36 df       	rcall	.-404    	; 0x672 <get_int_len>
 806:	d8 2e       	mov	r13, r24
 808:	11 23       	and	r17, r17
 80a:	51 f1       	breq	.+84     	; 0x860 <lcd_blink_int+0x72>
 80c:	80 91 d2 01 	lds	r24, 0x01D2
 810:	88 23       	and	r24, r24
 812:	71 f4       	brne	.+28     	; 0x830 <lcd_blink_int+0x42>
 814:	80 91 be 01 	lds	r24, 0x01BE
 818:	88 23       	and	r24, r24
 81a:	51 f4       	brne	.+20     	; 0x830 <lcd_blink_int+0x42>
 81c:	8f 2d       	mov	r24, r15
 81e:	6e 2d       	mov	r22, r14
 820:	ab de       	rcall	.-682    	; 0x578 <lcd_locate>
 822:	ce 01       	movw	r24, r28
 824:	ca df       	rcall	.-108    	; 0x7ba <lcd_int>
 826:	81 e0       	ldi	r24, 0x01	; 1
 828:	80 93 be 01 	sts	0x01BE, r24
 82c:	00 93 d2 01 	sts	0x01D2, r16
 830:	80 91 d2 01 	lds	r24, 0x01D2
 834:	88 23       	and	r24, r24
 836:	c9 f4       	brne	.+50     	; 0x86a <lcd_blink_int+0x7c>
 838:	80 91 be 01 	lds	r24, 0x01BE
 83c:	88 23       	and	r24, r24
 83e:	a9 f0       	breq	.+42     	; 0x86a <lcd_blink_int+0x7c>
 840:	8f 2d       	mov	r24, r15
 842:	6e 2d       	mov	r22, r14
 844:	99 de       	rcall	.-718    	; 0x578 <lcd_locate>
 846:	10 e0       	ldi	r17, 0x00	; 0
 848:	03 c0       	rjmp	.+6      	; 0x850 <lcd_blink_int+0x62>
 84a:	80 e2       	ldi	r24, 0x20	; 32
 84c:	33 de       	rcall	.-922    	; 0x4b4 <lcd_char>
 84e:	1f 5f       	subi	r17, 0xFF	; 255
 850:	1d 15       	cp	r17, r13
 852:	d8 f3       	brcs	.-10     	; 0x84a <lcd_blink_int+0x5c>
 854:	10 92 be 01 	sts	0x01BE, r1
 858:	06 95       	lsr	r16
 85a:	00 93 d2 01 	sts	0x01D2, r16
 85e:	05 c0       	rjmp	.+10     	; 0x86a <lcd_blink_int+0x7c>
 860:	8f 2d       	mov	r24, r15
 862:	6e 2d       	mov	r22, r14
 864:	89 de       	rcall	.-750    	; 0x578 <lcd_locate>
 866:	ce 01       	movw	r24, r28
 868:	a8 df       	rcall	.-176    	; 0x7ba <lcd_int>
 86a:	df 91       	pop	r29
 86c:	cf 91       	pop	r28
 86e:	1f 91       	pop	r17
 870:	0f 91       	pop	r16
 872:	ff 90       	pop	r15
 874:	ef 90       	pop	r14
 876:	df 90       	pop	r13
 878:	08 95       	ret

0000087a <lcd_defchar_E>:
 87a:	0f 93       	push	r16
 87c:	1f 93       	push	r17
 87e:	cf 93       	push	r28
 880:	df 93       	push	r29
 882:	8b 01       	movw	r16, r22
 884:	90 e0       	ldi	r25, 0x00	; 0
 886:	87 70       	andi	r24, 0x07	; 7
 888:	90 70       	andi	r25, 0x00	; 0
 88a:	08 96       	adiw	r24, 0x08	; 8
 88c:	88 0f       	add	r24, r24
 88e:	88 0f       	add	r24, r24
 890:	88 0f       	add	r24, r24
 892:	0a de       	rcall	.-1004   	; 0x4a8 <lcd_write_cmd>
 894:	c0 e0       	ldi	r28, 0x00	; 0
 896:	d0 e0       	ldi	r29, 0x00	; 0
 898:	c8 01       	movw	r24, r16
 89a:	8c 0f       	add	r24, r28
 89c:	9d 1f       	adc	r25, r29
 89e:	b1 d1       	rcall	.+866    	; 0xc02 <__eerd_byte_m8>
 8a0:	06 de       	rcall	.-1012   	; 0x4ae <lcd_write_data>
 8a2:	21 96       	adiw	r28, 0x01	; 1
 8a4:	c8 30       	cpi	r28, 0x08	; 8
 8a6:	d1 05       	cpc	r29, r1
 8a8:	b9 f7       	brne	.-18     	; 0x898 <lcd_defchar_E+0x1e>
 8aa:	df 91       	pop	r29
 8ac:	cf 91       	pop	r28
 8ae:	1f 91       	pop	r17
 8b0:	0f 91       	pop	r16
 8b2:	08 95       	ret

000008b4 <lcd_str_E>:
 8b4:	cf 93       	push	r28
 8b6:	df 93       	push	r29
 8b8:	ec 01       	movw	r28, r24
 8ba:	21 96       	adiw	r28, 0x01	; 1
 8bc:	a2 d1       	rcall	.+836    	; 0xc02 <__eerd_byte_m8>
 8be:	98 2f       	mov	r25, r24
 8c0:	81 50       	subi	r24, 0x01	; 1
 8c2:	8e 3f       	cpi	r24, 0xFE	; 254
 8c4:	40 f4       	brcc	.+16     	; 0x8d6 <lcd_str_E+0x22>
 8c6:	8f 57       	subi	r24, 0x7F	; 127
 8c8:	88 30       	cpi	r24, 0x08	; 8
 8ca:	08 f4       	brcc	.+2      	; 0x8ce <lcd_str_E+0x1a>
 8cc:	97 70       	andi	r25, 0x07	; 7
 8ce:	89 2f       	mov	r24, r25
 8d0:	ee dd       	rcall	.-1060   	; 0x4ae <lcd_write_data>
 8d2:	ce 01       	movw	r24, r28
 8d4:	f1 cf       	rjmp	.-30     	; 0x8b8 <lcd_str_E+0x4>
 8d6:	df 91       	pop	r29
 8d8:	cf 91       	pop	r28
 8da:	08 95       	ret

000008dc <init_kbc>:
 8dc:	8a 98       	cbi	0x11, 2	; 17
 8de:	92 9a       	sbi	0x12, 2	; 18
 8e0:	08 95       	ret

000008e2 <reset_cnt>:
 8e2:	10 92 c0 01 	sts	0x01C0, r1
 8e6:	10 92 c1 01 	sts	0x01C1, r1
 8ea:	10 92 c2 01 	sts	0x01C2, r1
 8ee:	10 92 c3 01 	sts	0x01C3, r1
 8f2:	82 99       	sbic	0x10, 2	; 16
 8f4:	00 c0       	rjmp	.+0      	; 0x8f6 <reset_cnt+0x14>
 8f6:	08 95       	ret

000008f8 <read_kbc>:
 8f8:	cf 93       	push	r28
 8fa:	df 93       	push	r29
 8fc:	fc 01       	movw	r30, r24
 8fe:	eb 01       	movw	r28, r22
 900:	82 99       	sbic	0x10, 2	; 16
 902:	1e c0       	rjmp	.+60     	; 0x940 <read_kbc+0x48>
 904:	80 91 c0 01 	lds	r24, 0x01C0
 908:	90 91 c1 01 	lds	r25, 0x01C1
 90c:	a0 91 c2 01 	lds	r26, 0x01C2
 910:	b0 91 c3 01 	lds	r27, 0x01C3
 914:	01 96       	adiw	r24, 0x01	; 1
 916:	a1 1d       	adc	r26, r1
 918:	b1 1d       	adc	r27, r1
 91a:	80 93 c0 01 	sts	0x01C0, r24
 91e:	90 93 c1 01 	sts	0x01C1, r25
 922:	a0 93 c2 01 	sts	0x01C2, r26
 926:	b0 93 c3 01 	sts	0x01C3, r27
 92a:	85 5f       	subi	r24, 0xF5	; 245
 92c:	91 40       	sbci	r25, 0x01	; 1
 92e:	a0 40       	sbci	r26, 0x00	; 0
 930:	b0 40       	sbci	r27, 0x00	; 0
 932:	20 f0       	brcs	.+8      	; 0x93c <read_kbc+0x44>
 934:	81 e0       	ldi	r24, 0x01	; 1
 936:	80 93 c4 01 	sts	0x01C4, r24
 93a:	02 c0       	rjmp	.+4      	; 0x940 <read_kbc+0x48>
 93c:	10 92 c4 01 	sts	0x01C4, r1
 940:	82 9b       	sbis	0x10, 2	; 16
 942:	03 c0       	rjmp	.+6      	; 0x94a <read_kbc+0x52>
 944:	81 e0       	ldi	r24, 0x01	; 1
 946:	80 93 c4 01 	sts	0x01C4, r24
 94a:	80 91 c4 01 	lds	r24, 0x01C4
 94e:	88 23       	and	r24, r24
 950:	d9 f1       	breq	.+118    	; 0x9c8 <read_kbc+0xd0>
 952:	80 91 c0 01 	lds	r24, 0x01C0
 956:	90 91 c1 01 	lds	r25, 0x01C1
 95a:	a0 91 c2 01 	lds	r26, 0x01C2
 95e:	b0 91 c3 01 	lds	r27, 0x01C3
 962:	85 3f       	cpi	r24, 0xF5	; 245
 964:	21 e0       	ldi	r18, 0x01	; 1
 966:	92 07       	cpc	r25, r18
 968:	20 e0       	ldi	r18, 0x00	; 0
 96a:	a2 07       	cpc	r26, r18
 96c:	20 e0       	ldi	r18, 0x00	; 0
 96e:	b2 07       	cpc	r27, r18
 970:	68 f0       	brcs	.+26     	; 0x98c <read_kbc+0x94>
 972:	81 e0       	ldi	r24, 0x01	; 1
 974:	88 83       	st	Y, r24
 976:	10 92 c0 01 	sts	0x01C0, r1
 97a:	10 92 c1 01 	sts	0x01C1, r1
 97e:	10 92 c2 01 	sts	0x01C2, r1
 982:	10 92 c3 01 	sts	0x01C3, r1
 986:	82 9b       	sbis	0x10, 2	; 16
 988:	1f c0       	rjmp	.+62     	; 0x9c8 <read_kbc+0xd0>
 98a:	1e c0       	rjmp	.+60     	; 0x9c8 <read_kbc+0xd0>
 98c:	89 57       	subi	r24, 0x79	; 121
 98e:	90 40       	sbci	r25, 0x00	; 0
 990:	a0 40       	sbci	r26, 0x00	; 0
 992:	b0 40       	sbci	r27, 0x00	; 0
 994:	8b 57       	subi	r24, 0x7B	; 123
 996:	91 40       	sbci	r25, 0x01	; 1
 998:	a0 40       	sbci	r26, 0x00	; 0
 99a:	b0 40       	sbci	r27, 0x00	; 0
 99c:	a8 f4       	brcc	.+42     	; 0x9c8 <read_kbc+0xd0>
 99e:	80 81       	ld	r24, Z
 9a0:	8f 5f       	subi	r24, 0xFF	; 255
 9a2:	80 83       	st	Z, r24
 9a4:	44 23       	and	r20, r20
 9a6:	31 f0       	breq	.+12     	; 0x9b4 <read_kbc+0xbc>
 9a8:	82 9b       	sbis	0x10, 2	; 16
 9aa:	02 c0       	rjmp	.+4      	; 0x9b0 <read_kbc+0xb8>
 9ac:	85 30       	cpi	r24, 0x05	; 5
 9ae:	10 f4       	brcc	.+4      	; 0x9b4 <read_kbc+0xbc>
 9b0:	86 5f       	subi	r24, 0xF6	; 246
 9b2:	80 83       	st	Z, r24
 9b4:	10 92 c0 01 	sts	0x01C0, r1
 9b8:	10 92 c1 01 	sts	0x01C1, r1
 9bc:	10 92 c2 01 	sts	0x01C2, r1
 9c0:	10 92 c3 01 	sts	0x01C3, r1
 9c4:	82 99       	sbic	0x10, 2	; 16
 9c6:	00 c0       	rjmp	.+0      	; 0x9c8 <read_kbc+0xd0>
 9c8:	df 91       	pop	r29
 9ca:	cf 91       	pop	r28
 9cc:	08 95       	ret

000009ce <encoder>:
 9ce:	90 b3       	in	r25, 0x10	; 16
 9d0:	98 71       	andi	r25, 0x18	; 24
 9d2:	90 93 c6 01 	sts	0x01C6, r25
 9d6:	80 91 d1 01 	lds	r24, 0x01D1
 9da:	98 17       	cp	r25, r24
 9dc:	a9 f1       	breq	.+106    	; 0xa48 <encoder+0x7a>
 9de:	80 91 d1 01 	lds	r24, 0x01D1
 9e2:	88 30       	cpi	r24, 0x08	; 8
 9e4:	a9 f0       	breq	.+42     	; 0xa10 <encoder+0x42>
 9e6:	89 30       	cpi	r24, 0x09	; 9
 9e8:	1c f4       	brge	.+6      	; 0x9f0 <encoder+0x22>
 9ea:	88 23       	and	r24, r24
 9ec:	31 f0       	breq	.+12     	; 0x9fa <encoder+0x2c>
 9ee:	2a c0       	rjmp	.+84     	; 0xa44 <encoder+0x76>
 9f0:	80 31       	cpi	r24, 0x10	; 16
 9f2:	99 f0       	breq	.+38     	; 0xa1a <encoder+0x4c>
 9f4:	88 31       	cpi	r24, 0x18	; 24
 9f6:	31 f5       	brne	.+76     	; 0xa44 <encoder+0x76>
 9f8:	03 c0       	rjmp	.+6      	; 0xa00 <encoder+0x32>
 9fa:	98 30       	cpi	r25, 0x08	; 8
 9fc:	29 f4       	brne	.+10     	; 0xa08 <encoder+0x3a>
 9fe:	02 c0       	rjmp	.+4      	; 0xa04 <encoder+0x36>
 a00:	90 31       	cpi	r25, 0x10	; 16
 a02:	11 f4       	brne	.+4      	; 0xa08 <encoder+0x3a>
 a04:	81 e0       	ldi	r24, 0x01	; 1
 a06:	01 c0       	rjmp	.+2      	; 0xa0a <encoder+0x3c>
 a08:	8f ef       	ldi	r24, 0xFF	; 255
 a0a:	80 93 c7 01 	sts	0x01C7, r24
 a0e:	1a c0       	rjmp	.+52     	; 0xa44 <encoder+0x76>
 a10:	98 31       	cpi	r25, 0x18	; 24
 a12:	79 f0       	breq	.+30     	; 0xa32 <encoder+0x64>
 a14:	99 23       	and	r25, r25
 a16:	19 f0       	breq	.+6      	; 0xa1e <encoder+0x50>
 a18:	15 c0       	rjmp	.+42     	; 0xa44 <encoder+0x76>
 a1a:	98 31       	cpi	r25, 0x18	; 24
 a1c:	41 f4       	brne	.+16     	; 0xa2e <encoder+0x60>
 a1e:	80 91 c7 01 	lds	r24, 0x01C7
 a22:	87 ff       	sbrs	r24, 7
 a24:	0f c0       	rjmp	.+30     	; 0xa44 <encoder+0x76>
 a26:	80 91 c5 01 	lds	r24, 0x01C5
 a2a:	8f 5f       	subi	r24, 0xFF	; 255
 a2c:	09 c0       	rjmp	.+18     	; 0xa40 <encoder+0x72>
 a2e:	99 23       	and	r25, r25
 a30:	49 f4       	brne	.+18     	; 0xa44 <encoder+0x76>
 a32:	80 91 c7 01 	lds	r24, 0x01C7
 a36:	18 16       	cp	r1, r24
 a38:	2c f4       	brge	.+10     	; 0xa44 <encoder+0x76>
 a3a:	80 91 c5 01 	lds	r24, 0x01C5
 a3e:	81 50       	subi	r24, 0x01	; 1
 a40:	80 93 c5 01 	sts	0x01C5, r24
 a44:	90 93 d1 01 	sts	0x01D1, r25
 a48:	08 95       	ret

00000a4a <enc_get>:
 a4a:	80 91 c5 01 	lds	r24, 0x01C5
 a4e:	10 92 c5 01 	sts	0x01C5, r1
 a52:	08 95       	ret

00000a54 <encoder_reset>:
 a54:	10 92 c5 01 	sts	0x01C5, r1
 a58:	80 b3       	in	r24, 0x10	; 16
 a5a:	88 71       	andi	r24, 0x18	; 24
 a5c:	80 93 d1 01 	sts	0x01D1, r24
 a60:	08 95       	ret

00000a62 <encoder_port>:
 a62:	81 b3       	in	r24, 0x11	; 17
 a64:	87 7e       	andi	r24, 0xE7	; 231
 a66:	81 bb       	out	0x11, r24	; 17
 a68:	82 b3       	in	r24, 0x12	; 18
 a6a:	88 61       	ori	r24, 0x18	; 24
 a6c:	82 bb       	out	0x12, r24	; 18
 a6e:	08 95       	ret

00000a70 <adc_init>:
 a70:	87 b1       	in	r24, 0x07	; 7
 a72:	80 6c       	ori	r24, 0xC0	; 192
 a74:	87 b9       	out	0x07, r24	; 7
 a76:	86 b1       	in	r24, 0x06	; 6
 a78:	86 68       	ori	r24, 0x86	; 134
 a7a:	86 b9       	out	0x06, r24	; 6
 a7c:	08 95       	ret

00000a7e <adc_measure>:
 a7e:	27 b1       	in	r18, 0x07	; 7
 a80:	97 b1       	in	r25, 0x07	; 7
 a82:	98 7f       	andi	r25, 0xF8	; 248
 a84:	92 2b       	or	r25, r18
 a86:	98 2b       	or	r25, r24
 a88:	97 b9       	out	0x07, r25	; 7
 a8a:	36 9a       	sbi	0x06, 6	; 6
 a8c:	36 99       	sbic	0x06, 6	; 6
 a8e:	fe cf       	rjmp	.-4      	; 0xa8c <adc_measure+0xe>
 a90:	24 b1       	in	r18, 0x04	; 4
 a92:	35 b1       	in	r19, 0x05	; 5
 a94:	c9 01       	movw	r24, r18
 a96:	08 95       	ret

00000a98 <temp_measure>:
 a98:	80 91 c8 01 	lds	r24, 0x01C8
 a9c:	90 91 c9 01 	lds	r25, 0x01C9
 aa0:	08 95       	ret

00000aa2 <__vector_6>:
 aa2:	1f 92       	push	r1
 aa4:	0f 92       	push	r0
 aa6:	0f b6       	in	r0, 0x3f	; 63
 aa8:	0f 92       	push	r0
 aaa:	11 24       	eor	r1, r1
 aac:	8f 93       	push	r24
 aae:	80 91 d2 01 	lds	r24, 0x01D2
 ab2:	88 23       	and	r24, r24
 ab4:	19 f0       	breq	.+6      	; 0xabc <__vector_6+0x1a>
 ab6:	81 50       	subi	r24, 0x01	; 1
 ab8:	80 93 d2 01 	sts	0x01D2, r24
 abc:	80 91 d3 01 	lds	r24, 0x01D3
 ac0:	88 23       	and	r24, r24
 ac2:	19 f0       	breq	.+6      	; 0xaca <__vector_6+0x28>
 ac4:	81 50       	subi	r24, 0x01	; 1
 ac6:	80 93 d3 01 	sts	0x01D3, r24
 aca:	80 91 d4 01 	lds	r24, 0x01D4
 ace:	88 23       	and	r24, r24
 ad0:	19 f0       	breq	.+6      	; 0xad8 <__vector_6+0x36>
 ad2:	81 50       	subi	r24, 0x01	; 1
 ad4:	80 93 d4 01 	sts	0x01D4, r24
 ad8:	8f 91       	pop	r24
 ada:	0f 90       	pop	r0
 adc:	0f be       	out	0x3f, r0	; 63
 ade:	0f 90       	pop	r0
 ae0:	1f 90       	pop	r1
 ae2:	18 95       	reti

00000ae4 <main>:
 ae4:	1f 93       	push	r17
 ae6:	86 dd       	rcall	.-1268   	; 0x5f4 <lcd_init>
 ae8:	bc df       	rcall	.-136    	; 0xa62 <encoder_port>
 aea:	b4 df       	rcall	.-152    	; 0xa54 <encoder_reset>
 aec:	8e b5       	in	r24, 0x2e	; 46
 aee:	88 60       	ori	r24, 0x08	; 8
 af0:	8e bd       	out	0x2e, r24	; 46
 af2:	8e b5       	in	r24, 0x2e	; 46
 af4:	85 60       	ori	r24, 0x05	; 5
 af6:	8e bd       	out	0x2e, r24	; 46
 af8:	89 b7       	in	r24, 0x39	; 57
 afa:	80 61       	ori	r24, 0x10	; 16
 afc:	89 bf       	out	0x39, r24	; 57
 afe:	88 ec       	ldi	r24, 0xC8	; 200
 b00:	90 e0       	ldi	r25, 0x00	; 0
 b02:	9b bd       	out	0x2b, r25	; 43
 b04:	8a bd       	out	0x2a, r24	; 42
 b06:	b4 df       	rcall	.-152    	; 0xa70 <adc_init>
 b08:	e9 de       	rcall	.-558    	; 0x8dc <init_kbc>
 b0a:	78 94       	sei
 b0c:	60 df       	rcall	.-320    	; 0x9ce <encoder>
 b0e:	10 91 cc 01 	lds	r17, 0x01CC
 b12:	11 23       	and	r17, r17
 b14:	21 f0       	breq	.+8      	; 0xb1e <main+0x3a>
 b16:	1c 30       	cpi	r17, 0x0C	; 12
 b18:	11 f0       	breq	.+4      	; 0xb1e <main+0x3a>
 b1a:	1d 30       	cpi	r17, 0x0D	; 13
 b1c:	11 f4       	brne	.+4      	; 0xb22 <main+0x3e>
 b1e:	9a df       	rcall	.-204    	; 0xa54 <encoder_reset>
 b20:	04 c0       	rjmp	.+8      	; 0xb2a <main+0x46>
 b22:	93 df       	rcall	.-218    	; 0xa4a <enc_get>
 b24:	18 0f       	add	r17, r24
 b26:	10 93 cc 01 	sts	0x01CC, r17
 b2a:	80 91 cc 01 	lds	r24, 0x01CC
 b2e:	ff db       	rcall	.-2050   	; 0x32e <menu_change>
 b30:	80 91 cc 01 	lds	r24, 0x01CC
 b34:	88 23       	and	r24, r24
 b36:	39 f4       	brne	.+14     	; 0xb46 <main+0x62>
 b38:	81 e4       	ldi	r24, 0x41	; 65
 b3a:	91 e0       	ldi	r25, 0x01	; 1
 b3c:	60 eb       	ldi	r22, 0xB0	; 176
 b3e:	71 e0       	ldi	r23, 0x01	; 1
 b40:	41 e0       	ldi	r20, 0x01	; 1
 b42:	20 e0       	ldi	r18, 0x00	; 0
 b44:	48 dc       	rcall	.-1904   	; 0x3d6 <start_display>
 b46:	80 91 cc 01 	lds	r24, 0x01CC
 b4a:	88 23       	and	r24, r24
 b4c:	29 f4       	brne	.+10     	; 0xb58 <main+0x74>
 b4e:	80 e0       	ldi	r24, 0x00	; 0
 b50:	90 e0       	ldi	r25, 0x00	; 0
 b52:	6c ec       	ldi	r22, 0xCC	; 204
 b54:	71 e0       	ldi	r23, 0x01	; 1
 b56:	0c c0       	rjmp	.+24     	; 0xb70 <main+0x8c>
 b58:	8c 30       	cpi	r24, 0x0C	; 12
 b5a:	31 f0       	breq	.+12     	; 0xb68 <main+0x84>
 b5c:	8c ec       	ldi	r24, 0xCC	; 204
 b5e:	91 e0       	ldi	r25, 0x01	; 1
 b60:	60 e0       	ldi	r22, 0x00	; 0
 b62:	70 e0       	ldi	r23, 0x00	; 0
 b64:	41 e0       	ldi	r20, 0x01	; 1
 b66:	05 c0       	rjmp	.+10     	; 0xb72 <main+0x8e>
 b68:	80 e0       	ldi	r24, 0x00	; 0
 b6a:	90 e0       	ldi	r25, 0x00	; 0
 b6c:	60 e0       	ldi	r22, 0x00	; 0
 b6e:	70 e0       	ldi	r23, 0x00	; 0
 b70:	40 e0       	ldi	r20, 0x00	; 0
 b72:	c2 de       	rcall	.-636    	; 0x8f8 <read_kbc>
 b74:	cb cf       	rjmp	.-106    	; 0xb0c <main+0x28>

00000b76 <__udivmodhi4>:
 b76:	aa 1b       	sub	r26, r26
 b78:	bb 1b       	sub	r27, r27
 b7a:	51 e1       	ldi	r21, 0x11	; 17
 b7c:	07 c0       	rjmp	.+14     	; 0xb8c <__udivmodhi4_ep>

00000b7e <__udivmodhi4_loop>:
 b7e:	aa 1f       	adc	r26, r26
 b80:	bb 1f       	adc	r27, r27
 b82:	a6 17       	cp	r26, r22
 b84:	b7 07       	cpc	r27, r23
 b86:	10 f0       	brcs	.+4      	; 0xb8c <__udivmodhi4_ep>
 b88:	a6 1b       	sub	r26, r22
 b8a:	b7 0b       	sbc	r27, r23

00000b8c <__udivmodhi4_ep>:
 b8c:	88 1f       	adc	r24, r24
 b8e:	99 1f       	adc	r25, r25
 b90:	5a 95       	dec	r21
 b92:	a9 f7       	brne	.-22     	; 0xb7e <__udivmodhi4_loop>
 b94:	80 95       	com	r24
 b96:	90 95       	com	r25
 b98:	bc 01       	movw	r22, r24
 b9a:	cd 01       	movw	r24, r26
 b9c:	08 95       	ret

00000b9e <__divmodhi4>:
 b9e:	97 fb       	bst	r25, 7
 ba0:	09 2e       	mov	r0, r25
 ba2:	07 26       	eor	r0, r23
 ba4:	0a d0       	rcall	.+20     	; 0xbba <__divmodhi4_neg1>
 ba6:	77 fd       	sbrc	r23, 7
 ba8:	04 d0       	rcall	.+8      	; 0xbb2 <__divmodhi4_neg2>
 baa:	e5 df       	rcall	.-54     	; 0xb76 <__udivmodhi4>
 bac:	06 d0       	rcall	.+12     	; 0xbba <__divmodhi4_neg1>
 bae:	00 20       	and	r0, r0
 bb0:	1a f4       	brpl	.+6      	; 0xbb8 <__divmodhi4_exit>

00000bb2 <__divmodhi4_neg2>:
 bb2:	70 95       	com	r23
 bb4:	61 95       	neg	r22
 bb6:	7f 4f       	sbci	r23, 0xFF	; 255

00000bb8 <__divmodhi4_exit>:
 bb8:	08 95       	ret

00000bba <__divmodhi4_neg1>:
 bba:	f6 f7       	brtc	.-4      	; 0xbb8 <__divmodhi4_exit>
 bbc:	90 95       	com	r25
 bbe:	81 95       	neg	r24
 bc0:	9f 4f       	sbci	r25, 0xFF	; 255
 bc2:	08 95       	ret

00000bc4 <itoa>:
 bc4:	fb 01       	movw	r30, r22
 bc6:	9f 01       	movw	r18, r30
 bc8:	e8 94       	clt
 bca:	42 30       	cpi	r20, 0x02	; 2
 bcc:	bc f0       	brlt	.+46     	; 0xbfc <itoa+0x38>
 bce:	45 32       	cpi	r20, 0x25	; 37
 bd0:	ac f4       	brge	.+42     	; 0xbfc <itoa+0x38>
 bd2:	4a 30       	cpi	r20, 0x0A	; 10
 bd4:	29 f4       	brne	.+10     	; 0xbe0 <itoa+0x1c>
 bd6:	97 fb       	bst	r25, 7
 bd8:	1e f4       	brtc	.+6      	; 0xbe0 <itoa+0x1c>
 bda:	90 95       	com	r25
 bdc:	81 95       	neg	r24
 bde:	9f 4f       	sbci	r25, 0xFF	; 255
 be0:	64 2f       	mov	r22, r20
 be2:	77 27       	eor	r23, r23
 be4:	c8 df       	rcall	.-112    	; 0xb76 <__udivmodhi4>
 be6:	80 5d       	subi	r24, 0xD0	; 208
 be8:	8a 33       	cpi	r24, 0x3A	; 58
 bea:	0c f0       	brlt	.+2      	; 0xbee <itoa+0x2a>
 bec:	89 5d       	subi	r24, 0xD9	; 217
 bee:	81 93       	st	Z+, r24
 bf0:	cb 01       	movw	r24, r22
 bf2:	00 97       	sbiw	r24, 0x00	; 0
 bf4:	a9 f7       	brne	.-22     	; 0xbe0 <itoa+0x1c>
 bf6:	16 f4       	brtc	.+4      	; 0xbfc <itoa+0x38>
 bf8:	5d e2       	ldi	r21, 0x2D	; 45
 bfa:	51 93       	st	Z+, r21
 bfc:	10 82       	st	Z, r1
 bfe:	c9 01       	movw	r24, r18
 c00:	08 c0       	rjmp	.+16     	; 0xc12 <strrev>

00000c02 <__eerd_byte_m8>:
 c02:	e1 99       	sbic	0x1c, 1	; 28
 c04:	fe cf       	rjmp	.-4      	; 0xc02 <__eerd_byte_m8>
 c06:	9f bb       	out	0x1f, r25	; 31
 c08:	8e bb       	out	0x1e, r24	; 30
 c0a:	e0 9a       	sbi	0x1c, 0	; 28
 c0c:	99 27       	eor	r25, r25
 c0e:	8d b3       	in	r24, 0x1d	; 29
 c10:	08 95       	ret

00000c12 <strrev>:
 c12:	dc 01       	movw	r26, r24
 c14:	fc 01       	movw	r30, r24
 c16:	67 2f       	mov	r22, r23
 c18:	71 91       	ld	r23, Z+
 c1a:	77 23       	and	r23, r23
 c1c:	e1 f7       	brne	.-8      	; 0xc16 <strrev+0x4>
 c1e:	32 97       	sbiw	r30, 0x02	; 2
 c20:	04 c0       	rjmp	.+8      	; 0xc2a <strrev+0x18>
 c22:	7c 91       	ld	r23, X
 c24:	6d 93       	st	X+, r22
 c26:	70 83       	st	Z, r23
 c28:	62 91       	ld	r22, -Z
 c2a:	ae 17       	cp	r26, r30
 c2c:	bf 07       	cpc	r27, r31
 c2e:	c8 f3       	brcs	.-14     	; 0xc22 <strrev+0x10>
 c30:	08 95       	ret
